; Function Attrs: mustprogress nofree norecurse nosync nounwind willreturn memory(argmem: readwrite) uwtable
define internal noundef i32 @zueci_iso8859_4_u(ptr nocapture noundef readonly %0, i32 %1, i32 noundef %2, ptr nocapture noundef writeonly %3) #6 {
  %5 = load i8, ptr %0, align 1
  %6 = zext i8 %5 to i32
  %7 = icmp ult i8 %5, -96
  br i1 %7, label %8, label %11

8:                                                ; preds = %4
  %9 = icmp slt i8 %5, 0
  %10 = and i32 %2, 1
  %.not25.i = icmp eq i32 %10, 0
  %or.cond.i = and i1 %.not25.i, %9
  br i1 %or.cond.i, label %zueci_iso8859_u.exit, label %.sink.split.i

11:                                               ; preds = %4
  %12 = add nsw i8 %5, 96
  %13 = zext nneg i8 %12 to i32
  %14 = lshr i32 %13, 4
  %15 = zext nneg i32 %14 to i64
  %16 = getelementptr inbounds i16, ptr @zueci_iso8859_4_s, i64 %15
  %17 = load i16, ptr %16, align 2
  %18 = zext i16 %17 to i32
  %19 = and i32 %13, 15
  %20 = shl nuw nsw i32 1, %19
  %21 = and i32 %20, %18
  %.not.i = icmp eq i32 %21, 0
  br i1 %.not.i, label %22, label %.sink.split.i

22:                                               ; preds = %11
  %23 = zext nneg i8 %12 to i64
  %24 = getelementptr inbounds i8, ptr @zueci_iso8859_4_sb_u, i64 %23
  %25 = load i8, ptr %24, align 1
  %.not23.i = icmp eq i8 %25, -1
  br i1 %.not23.i, label %31, label %26

26:                                               ; preds = %22
  %27 = sext i8 %25 to i64
  %28 = getelementptr inbounds i16, ptr @zueci_iso8859_4_u_u, i64 %27
  %29 = load i16, ptr %28, align 2
  %30 = zext i16 %29 to i32
  br label %.sink.split.i

31:                                               ; preds = %22
  %32 = and i32 %2, 1
  %.not24.i = icmp eq i32 %32, 0
  br i1 %.not24.i, label %zueci_iso8859_u.exit, label %.sink.split.i

.sink.split.i:                                    ; preds = %31, %26, %11, %8
  %.sink.i = phi i32 [ %30, %26 ], [ %6, %8 ], [ %6, %11 ], [ %6, %31 ]
  store i32 %.sink.i, ptr %3, align 4
  br label %zueci_iso8859_u.exit

zueci_iso8859_u.exit:                             ; preds = %8, %31, %.sink.split.i
  %.0.i = phi i32 [ 0, %8 ], [ 0, %31 ], [ 1, %.sink.split.i ]
  ret i32 %.0.i
}